target datalayout = "e-m:e-p270:32:32-p271:32:32-p272:64:64-i64:64-i128:128-f80:128-n8:16:32:64-S128"
target triple = "x86_64-pc-linux-gnu"

%struct.curltime = type { i64, i32 }
%struct.dynbuf = type { ptr, i64, i64, i64 }
%struct.pingpong = type { i64, i8, ptr, i64, i64, %struct.curltime, i64, %struct.dynbuf, %struct.dynbuf, i64, i64, ptr, ptr }

; Function Attrs: nounwind uwtable
define hidden zeroext i1 @Curl_pp_moredata(ptr noundef %0) #0 {
  %2 = alloca ptr, align 8
  store ptr %0, ptr %2, align 8, !tbaa !8
  %3 = load ptr, ptr %2, align 8, !tbaa !8
  %4 = getelementptr inbounds nuw %struct.pingpong, ptr %3, i32 0, i32 3
  %5 = load i64, ptr %4, align 8, !tbaa !91
  %6 = icmp ne i64 %5, 0
  br i1 %6, label %15, label %7

7:                                                ; preds = %1
  %8 = load ptr, ptr %2, align 8, !tbaa !8
  %9 = getelementptr inbounds nuw %struct.pingpong, ptr %8, i32 0, i32 8
  %10 = call i64 @Curl_dyn_len(ptr noundef %9)
  %11 = load ptr, ptr %2, align 8, !tbaa !8
  %12 = getelementptr inbounds nuw %struct.pingpong, ptr %11, i32 0, i32 10
  %13 = load i64, ptr %12, align 8, !tbaa !105
  %14 = icmp ugt i64 %10, %13
  br label %15

15:                                               ; preds = %7, %1
  %16 = phi i1 [ false, %1 ], [ %14, %7 ]
  ret i1 %16
}